target datalayout = "e-m:e-p270:32:32-p271:32:32-p272:64:64-i64:64-i128:128-f80:128-n8:16:32:64-S128"
target triple = "x86_64-pc-linux-gnu"

@.str.1 = private unnamed_addr constant [11 x i8] c"listpack.c\00", align 1
@.str.30 = private unnamed_addr constant [32 x i8] c"lpValidateNext(lp, &p, lpbytes)\00", align 1

; Function Attrs: inlinehint nounwind uwtable
define internal void @lpAssertValidEntry(ptr noundef %0, i64 noundef %1, ptr noundef %2) #6 {
  %4 = alloca ptr, align 8
  %5 = alloca i64, align 8
  %6 = alloca ptr, align 8
  store ptr %0, ptr %4, align 8, !tbaa !5
  store i64 %1, ptr %5, align 8, !tbaa !10
  store ptr %2, ptr %6, align 8, !tbaa !5
  %7 = load ptr, ptr %4, align 8, !tbaa !5
  %8 = load i64, ptr %5, align 8, !tbaa !10
  %9 = call i32 @lpValidateNext(ptr noundef %7, ptr noundef %6, i64 noundef %8)
  %10 = icmp ne i32 %9, 0
  %11 = xor i1 %10, true
  %12 = xor i1 %11, true
  %13 = zext i1 %12 to i32
  %14 = sext i32 %13 to i64
  %15 = call i64 @llvm.expect.i64(i64 %14, i64 1)
  %16 = icmp ne i64 %15, 0
  br i1 %16, label %17, label %18

17:                                               ; preds = %3
  br label %20

18:                                               ; preds = %3
  call void @_serverAssert(ptr noundef @.str.30, ptr noundef @.str.1, i32 noundef 1664)
  call void @abort() #11
  unreachable

19:                                               ; No predecessors!
  br label %20

20:                                               ; preds = %19, %17
  ret void
}

; Function Attrs: nounwind uwtable
define dso_local i64 @lpBytes(ptr noundef %0) #0 {
  %2 = alloca ptr, align 8
  store ptr %0, ptr %2, align 8, !tbaa !5
  %3 = load ptr, ptr %2, align 8, !tbaa !5
  %4 = getelementptr inbounds i8, ptr %3, i64 0
  %5 = load i8, ptr %4, align 1, !tbaa !12
  %6 = zext i8 %5 to i32
  %7 = shl i32 %6, 0
  %8 = load ptr, ptr %2, align 8, !tbaa !5
  %9 = getelementptr inbounds i8, ptr %8, i64 1
  %10 = load i8, ptr %9, align 1, !tbaa !12
  %11 = zext i8 %10 to i32
  %12 = shl i32 %11, 8
  %13 = or i32 %7, %12
  %14 = load ptr, ptr %2, align 8, !tbaa !5
  %15 = getelementptr inbounds i8, ptr %14, i64 2
  %16 = load i8, ptr %15, align 1, !tbaa !12
  %17 = zext i8 %16 to i32
  %18 = shl i32 %17, 16
  %19 = or i32 %13, %18
  %20 = load ptr, ptr %2, align 8, !tbaa !5
  %21 = getelementptr inbounds i8, ptr %20, i64 3
  %22 = load i8, ptr %21, align 1, !tbaa !12
  %23 = zext i8 %22 to i32
  %24 = shl i32 %23, 24
  %25 = or i32 %19, %24
  %26 = zext i32 %25 to i64
  ret i64 %26
}

; Function Attrs: nounwind uwtable
define dso_local ptr @lpAppendInteger(ptr noundef %0, i64 noundef %1) #0 {
  %3 = alloca ptr, align 8
  %4 = alloca i64, align 8
  %5 = alloca i64, align 8
  %6 = alloca ptr, align 8
  store ptr %0, ptr %3, align 8, !tbaa !5
  store i64 %1, ptr %4, align 8, !tbaa !25
  call void @llvm.lifetime.start.p0(i64 8, ptr %5) #10
  %7 = load ptr, ptr %3, align 8, !tbaa !5
  %8 = getelementptr inbounds i8, ptr %7, i64 0
  %9 = load i8, ptr %8, align 1, !tbaa !12
  %10 = zext i8 %9 to i32
  %11 = shl i32 %10, 0
  %12 = load ptr, ptr %3, align 8, !tbaa !5
  %13 = getelementptr inbounds i8, ptr %12, i64 1
  %14 = load i8, ptr %13, align 1, !tbaa !12
  %15 = zext i8 %14 to i32
  %16 = shl i32 %15, 8
  %17 = or i32 %11, %16
  %18 = load ptr, ptr %3, align 8, !tbaa !5
  %19 = getelementptr inbounds i8, ptr %18, i64 2
  %20 = load i8, ptr %19, align 1, !tbaa !12
  %21 = zext i8 %20 to i32
  %22 = shl i32 %21, 16
  %23 = or i32 %17, %22
  %24 = load ptr, ptr %3, align 8, !tbaa !5
  %25 = getelementptr inbounds i8, ptr %24, i64 3
  %26 = load i8, ptr %25, align 1, !tbaa !12
  %27 = zext i8 %26 to i32
  %28 = shl i32 %27, 24
  %29 = or i32 %23, %28
  %30 = zext i32 %29 to i64
  store i64 %30, ptr %5, align 8, !tbaa !10
  call void @llvm.lifetime.start.p0(i64 8, ptr %6) #10
  %31 = load ptr, ptr %3, align 8, !tbaa !5
  %32 = load i64, ptr %5, align 8, !tbaa !10
  %33 = getelementptr inbounds nuw i8, ptr %31, i64 %32
  %34 = getelementptr inbounds i8, ptr %33, i64 -1
  store ptr %34, ptr %6, align 8, !tbaa !5
  %35 = load ptr, ptr %3, align 8, !tbaa !5
  %36 = load i64, ptr %4, align 8, !tbaa !25
  %37 = load ptr, ptr %6, align 8, !tbaa !5
  %38 = call ptr @lpInsertInteger(ptr noundef %35, i64 noundef %36, ptr noundef %37, i32 noundef 0, ptr noundef null)
  call void @llvm.lifetime.end.p0(i64 8, ptr %6) #10
  call void @llvm.lifetime.end.p0(i64 8, ptr %5) #10
  ret ptr %38
}

; Function Attrs: nounwind uwtable
define dso_local ptr @lpFirst(ptr noundef %0) #0 {
  %2 = alloca ptr, align 8
  %3 = alloca ptr, align 8
  %4 = alloca ptr, align 8
  %5 = alloca i32, align 4
  store ptr %0, ptr %3, align 8, !tbaa !5
  call void @llvm.lifetime.start.p0(i64 8, ptr %4) #10
  %6 = load ptr, ptr %3, align 8, !tbaa !5
  %7 = getelementptr inbounds i8, ptr %6, i64 6
  store ptr %7, ptr %4, align 8, !tbaa !5
  %8 = load ptr, ptr %4, align 8, !tbaa !5
  %9 = getelementptr inbounds i8, ptr %8, i64 0
  %10 = load i8, ptr %9, align 1, !tbaa !12
  %11 = zext i8 %10 to i32
  %12 = icmp eq i32 %11, 255
  br i1 %12, label %13, label %14

13:                                               ; preds = %1
  store ptr null, ptr %2, align 8
  store i32 1, ptr %5, align 4
  br label %20

14:                                               ; preds = %1
  %15 = load ptr, ptr %3, align 8, !tbaa !5
  %16 = load ptr, ptr %3, align 8, !tbaa !5
  %17 = call i64 @lpBytes(ptr noundef %16)
  %18 = load ptr, ptr %4, align 8, !tbaa !5
  call void @lpAssertValidEntry(ptr noundef %15, i64 noundef %17, ptr noundef %18)
  %19 = load ptr, ptr %4, align 8, !tbaa !5
  store ptr %19, ptr %2, align 8
  store i32 1, ptr %5, align 4
  br label %20

20:                                               ; preds = %14, %13
  call void @llvm.lifetime.end.p0(i64 8, ptr %4) #10
  %21 = load ptr, ptr %2, align 8
  ret ptr %21
}

; Function Attrs: nounwind uwtable
define dso_local ptr @lpPrependInteger(ptr noundef %0, i64 noundef %1) #0 {
  %3 = alloca ptr, align 8
  %4 = alloca ptr, align 8
  %5 = alloca i64, align 8
  %6 = alloca ptr, align 8
  %7 = alloca i32, align 4
  store ptr %0, ptr %4, align 8, !tbaa !5
  store i64 %1, ptr %5, align 8, !tbaa !25
  call void @llvm.lifetime.start.p0(i64 8, ptr %6) #10
  %8 = load ptr, ptr %4, align 8, !tbaa !5
  %9 = call ptr @lpFirst(ptr noundef %8)
  store ptr %9, ptr %6, align 8, !tbaa !5
  %10 = load ptr, ptr %6, align 8, !tbaa !5
  %11 = icmp ne ptr %10, null
  br i1 %11, label %16, label %12

12:                                               ; preds = %2
  %13 = load ptr, ptr %4, align 8, !tbaa !5
  %14 = load i64, ptr %5, align 8, !tbaa !25
  %15 = call ptr @lpAppendInteger(ptr noundef %13, i64 noundef %14)
  store ptr %15, ptr %3, align 8
  store i32 1, ptr %7, align 4
  br label %21

16:                                               ; preds = %2
  %17 = load ptr, ptr %4, align 8, !tbaa !5
  %18 = load i64, ptr %5, align 8, !tbaa !25
  %19 = load ptr, ptr %6, align 8, !tbaa !5
  %20 = call ptr @lpInsertInteger(ptr noundef %17, i64 noundef %18, ptr noundef %19, i32 noundef 0, ptr noundef null)
  store ptr %20, ptr %3, align 8
  store i32 1, ptr %7, align 4
  br label %21

21:                                               ; preds = %16, %12
  call void @llvm.lifetime.end.p0(i64 8, ptr %6) #10
  %22 = load ptr, ptr %3, align 8
  ret ptr %22
}