; Function Attrs: nounwind uwtable
define dso_local ptr @lpPrependInteger(ptr noundef %0, i64 noundef %1) local_unnamed_addr #3 {
  %3 = alloca ptr, align 8
  %4 = getelementptr inbounds nuw i8, ptr %0, i64 6
  %5 = load i8, ptr %4, align 1, !tbaa !5
  %6 = icmp eq i8 %5, -1
  %7 = load i32, ptr %0, align 1
  %8 = zext i32 %7 to i64
  br i1 %6, label %12, label %9

9:                                                ; preds = %2
  call void @llvm.lifetime.start.p0(i64 8, ptr nonnull %3)
  store ptr %4, ptr %3, align 8, !tbaa !13
  %10 = call i32 @lpValidateNext(ptr noundef nonnull %0, ptr noundef nonnull %3, i64 noundef %8)
  %.not.i.i = icmp eq i32 %10, 0
  br i1 %.not.i.i, label %11, label %15, !prof !12

11:                                               ; preds = %9
  tail call void @_serverAssert(ptr noundef nonnull @.str.30, ptr noundef nonnull @.str.1, i32 noundef 1664) #20
  tail call void @abort() #21
  unreachable

12:                                               ; preds = %2
  %13 = getelementptr inbounds nuw i8, ptr %0, i64 %8
  %14 = getelementptr inbounds i8, ptr %13, i64 -1
  br label %16

15:                                               ; preds = %9
  call void @llvm.lifetime.end.p0(i64 8, ptr nonnull %3)
  br label %16

16:                                               ; preds = %15, %12
  %.sink = phi ptr [ %4, %15 ], [ %14, %12 ]
  %17 = tail call ptr @lpInsertInteger(ptr noundef nonnull %0, i64 noundef %1, ptr noundef nonnull %.sink, i32 noundef 0, ptr noundef null)
  ret ptr %17
}